target datalayout = "e-m:e-p270:32:32-p271:32:32-p272:64:64-i64:64-i128:128-f80:128-n8:16:32:64-S128"
target triple = "x86_64-pc-linux-gnu"

%struct.reflog_expire_cfg = type { ptr, i64, i64, [0 x i8] }

@default_reflog_expire_unreachable = internal global i64 0, align 8
@default_reflog_expire = internal global i64 0, align 8
@.str.33 = private unnamed_addr constant [3 x i8] c"gc\00", align 1
@.str.34 = private unnamed_addr constant [13 x i8] c"reflogexpire\00", align 1
@.str.35 = private unnamed_addr constant [24 x i8] c"reflogexpireunreachable\00", align 1
@reflog_expire_cfg_tail = internal global ptr null, align 8
@reflog_expire_cfg = internal global ptr null, align 8
@.str.36 = private unnamed_addr constant [27 x i8] c"size_t overflow: %lu + %lu\00", align 1

; Function Attrs: inlinehint nounwind uwtable
define internal i64 @st_add(i64 noundef %0, i64 noundef %1) #4 {
  %3 = alloca i64, align 8
  %4 = alloca i64, align 8
  store i64 %0, ptr %3, align 8, !tbaa !32
  store i64 %1, ptr %4, align 8, !tbaa !32
  %5 = load i64, ptr %4, align 8, !tbaa !32
  %6 = load i64, ptr %3, align 8, !tbaa !32
  %7 = sub i64 -1, %6
  %8 = icmp ugt i64 %5, %7
  br i1 %8, label %9, label %12

9:                                                ; preds = %2
  %10 = load i64, ptr %3, align 8, !tbaa !32
  %11 = load i64, ptr %4, align 8, !tbaa !32
  call void (ptr, ...) @die(ptr noundef @.str.36, i64 noundef %10, i64 noundef %11) #11
  unreachable

12:                                               ; preds = %2
  %13 = load i64, ptr %3, align 8, !tbaa !32
  %14 = load i64, ptr %4, align 8, !tbaa !32
  %15 = add i64 %13, %14
  ret i64 %15
}

; Function Attrs: nounwind uwtable
define internal ptr @find_cfg_ent(ptr noundef %0, i64 noundef %1) #0 {
  %3 = alloca ptr, align 8
  %4 = alloca ptr, align 8
  %5 = alloca i64, align 8
  %6 = alloca ptr, align 8
  %7 = alloca i32, align 4
  %8 = alloca i64, align 8
  store ptr %0, ptr %4, align 8, !tbaa !11
  store i64 %1, ptr %5, align 8, !tbaa !32
  call void @llvm.lifetime.start.p0(i64 8, ptr %6) #9
  %9 = load ptr, ptr @reflog_expire_cfg_tail, align 8, !tbaa !86
  %10 = icmp ne ptr %9, null
  br i1 %10, label %12, label %11

11:                                               ; preds = %2
  store ptr @reflog_expire_cfg, ptr @reflog_expire_cfg_tail, align 8, !tbaa !86
  br label %12

12:                                               ; preds = %11, %2
  %13 = load ptr, ptr @reflog_expire_cfg, align 8, !tbaa !79
  store ptr %13, ptr %6, align 8, !tbaa !79
  br label %14

14:                                               ; preds = %28, %12
  %15 = load ptr, ptr %6, align 8, !tbaa !79
  %16 = icmp ne ptr %15, null
  br i1 %16, label %17, label %32

17:                                               ; preds = %14
  %18 = load ptr, ptr %6, align 8, !tbaa !79
  %19 = getelementptr inbounds nuw %struct.reflog_expire_cfg, ptr %18, i32 0, i32 3
  %20 = getelementptr inbounds [0 x i8], ptr %19, i64 0, i64 0
  %21 = load ptr, ptr %4, align 8, !tbaa !11
  %22 = load i64, ptr %5, align 8, !tbaa !32
  %23 = call i32 @xstrncmpz(ptr noundef %20, ptr noundef %21, i64 noundef %22)
  %24 = icmp ne i32 %23, 0
  br i1 %24, label %27, label %25

25:                                               ; preds = %17
  %26 = load ptr, ptr %6, align 8, !tbaa !79
  store ptr %26, ptr %3, align 8
  store i32 1, ptr %7, align 4
  br label %51

27:                                               ; preds = %17
  br label %28

28:                                               ; preds = %27
  %29 = load ptr, ptr %6, align 8, !tbaa !79
  %30 = getelementptr inbounds nuw %struct.reflog_expire_cfg, ptr %29, i32 0, i32 0
  %31 = load ptr, ptr %30, align 8, !tbaa !79
  store ptr %31, ptr %6, align 8, !tbaa !79
  br label %14, !llvm.loop !88

32:                                               ; preds = %14
  br label %33

33:                                               ; preds = %32
  call void @llvm.lifetime.start.p0(i64 8, ptr %8) #9
  %34 = load i64, ptr %5, align 8, !tbaa !32
  store i64 %34, ptr %8, align 8, !tbaa !32
  %35 = load i64, ptr %8, align 8, !tbaa !32
  %36 = call i64 @st_add(i64 noundef 24, i64 noundef %35)
  %37 = call i64 @st_add(i64 noundef %36, i64 noundef 1)
  %38 = call ptr @xcalloc(i64 noundef 1, i64 noundef %37)
  store ptr %38, ptr %6, align 8, !tbaa !79
  %39 = load ptr, ptr %6, align 8, !tbaa !79
  %40 = getelementptr inbounds nuw %struct.reflog_expire_cfg, ptr %39, i32 0, i32 3
  %41 = getelementptr inbounds [0 x i8], ptr %40, i64 0, i64 0
  %42 = load ptr, ptr %4, align 8, !tbaa !11
  %43 = load i64, ptr %8, align 8, !tbaa !32
  call void @llvm.memcpy.p0.p0.i64(ptr align 8 %41, ptr align 1 %42, i64 %43, i1 false)
  call void @llvm.lifetime.end.p0(i64 8, ptr %8) #9
  br label %44

44:                                               ; preds = %33
  br label %45

45:                                               ; preds = %44
  %46 = load ptr, ptr %6, align 8, !tbaa !79
  %47 = load ptr, ptr @reflog_expire_cfg_tail, align 8, !tbaa !86
  store ptr %46, ptr %47, align 8, !tbaa !79
  %48 = load ptr, ptr %6, align 8, !tbaa !79
  %49 = getelementptr inbounds nuw %struct.reflog_expire_cfg, ptr %48, i32 0, i32 0
  store ptr %49, ptr @reflog_expire_cfg_tail, align 8, !tbaa !86
  %50 = load ptr, ptr %6, align 8, !tbaa !79
  store ptr %50, ptr %3, align 8
  store i32 1, ptr %7, align 4
  br label %51

51:                                               ; preds = %45, %25
  call void @llvm.lifetime.end.p0(i64 8, ptr %6) #9
  %52 = load ptr, ptr %3, align 8
  ret ptr %52
}

; Function Attrs: nounwind uwtable
define internal i32 @reflog_expire_config(ptr noundef %0, ptr noundef %1, ptr noundef %2, ptr noundef %3) #0 {
  %5 = alloca i32, align 4
  %6 = alloca ptr, align 8
  %7 = alloca ptr, align 8
  %8 = alloca ptr, align 8
  %9 = alloca ptr, align 8
  %10 = alloca ptr, align 8
  %11 = alloca ptr, align 8
  %12 = alloca i64, align 8
  %13 = alloca i64, align 8
  %14 = alloca i32, align 4
  %15 = alloca ptr, align 8
  %16 = alloca i32, align 4
  store ptr %0, ptr %6, align 8, !tbaa !11
  store ptr %1, ptr %7, align 8, !tbaa !11
  store ptr %2, ptr %8, align 8, !tbaa !77
  store ptr %3, ptr %9, align 8, !tbaa !15
  call void @llvm.lifetime.start.p0(i64 8, ptr %10) #9
  call void @llvm.lifetime.start.p0(i64 8, ptr %11) #9
  call void @llvm.lifetime.start.p0(i64 8, ptr %12) #9
  call void @llvm.lifetime.start.p0(i64 8, ptr %13) #9
  call void @llvm.lifetime.start.p0(i64 4, ptr %14) #9
  call void @llvm.lifetime.start.p0(i64 8, ptr %15) #9
  %17 = load ptr, ptr %6, align 8, !tbaa !11
  %18 = call i32 @parse_config_key(ptr noundef %17, ptr noundef @.str.33, ptr noundef %10, ptr noundef %12, ptr noundef %11)
  %19 = icmp slt i32 %18, 0
  br i1 %19, label %20, label %26

20:                                               ; preds = %4
  %21 = load ptr, ptr %6, align 8, !tbaa !11
  %22 = load ptr, ptr %7, align 8, !tbaa !11
  %23 = load ptr, ptr %8, align 8, !tbaa !77
  %24 = load ptr, ptr %9, align 8, !tbaa !15
  %25 = call i32 @git_default_config(ptr noundef %21, ptr noundef %22, ptr noundef %23, ptr noundef %24)
  store i32 %25, ptr %5, align 4
  store i32 1, ptr %16, align 4
  br label %83

26:                                               ; preds = %4
  %27 = load ptr, ptr %11, align 8, !tbaa !11
  %28 = call i32 @strcmp(ptr noundef %27, ptr noundef @.str.34) #10
  %29 = icmp ne i32 %28, 0
  br i1 %29, label %37, label %30

30:                                               ; preds = %26
  store i32 1, ptr %14, align 4, !tbaa !4
  %31 = load ptr, ptr %6, align 8, !tbaa !11
  %32 = load ptr, ptr %7, align 8, !tbaa !11
  %33 = call i32 @git_config_expiry_date(ptr noundef %13, ptr noundef %31, ptr noundef %32)
  %34 = icmp ne i32 %33, 0
  br i1 %34, label %35, label %36

35:                                               ; preds = %30
  store i32 -1, ptr %5, align 4
  store i32 1, ptr %16, align 4
  br label %83

36:                                               ; preds = %30
  br label %55

37:                                               ; preds = %26
  %38 = load ptr, ptr %11, align 8, !tbaa !11
  %39 = call i32 @strcmp(ptr noundef %38, ptr noundef @.str.35) #10
  %40 = icmp ne i32 %39, 0
  br i1 %40, label %48, label %41

41:                                               ; preds = %37
  store i32 2, ptr %14, align 4, !tbaa !4
  %42 = load ptr, ptr %6, align 8, !tbaa !11
  %43 = load ptr, ptr %7, align 8, !tbaa !11
  %44 = call i32 @git_config_expiry_date(ptr noundef %13, ptr noundef %42, ptr noundef %43)
  %45 = icmp ne i32 %44, 0
  br i1 %45, label %46, label %47

46:                                               ; preds = %41
  store i32 -1, ptr %5, align 4
  store i32 1, ptr %16, align 4
  br label %83

47:                                               ; preds = %41
  br label %54

48:                                               ; preds = %37
  %49 = load ptr, ptr %6, align 8, !tbaa !11
  %50 = load ptr, ptr %7, align 8, !tbaa !11
  %51 = load ptr, ptr %8, align 8, !tbaa !77
  %52 = load ptr, ptr %9, align 8, !tbaa !15
  %53 = call i32 @git_default_config(ptr noundef %49, ptr noundef %50, ptr noundef %51, ptr noundef %52)
  store i32 %53, ptr %5, align 4
  store i32 1, ptr %16, align 4
  br label %83

54:                                               ; preds = %47
  br label %55

55:                                               ; preds = %54, %36
  %56 = load ptr, ptr %10, align 8, !tbaa !11
  %57 = icmp ne ptr %56, null
  br i1 %57, label %65, label %58

58:                                               ; preds = %55
  %59 = load i32, ptr %14, align 4, !tbaa !4
  switch i32 %59, label %64 [
    i32 1, label %60
    i32 2, label %62
  ]

60:                                               ; preds = %58
  %61 = load i64, ptr %13, align 8, !tbaa !32
  store i64 %61, ptr @default_reflog_expire, align 8, !tbaa !32
  br label %64

62:                                               ; preds = %58
  %63 = load i64, ptr %13, align 8, !tbaa !32
  store i64 %63, ptr @default_reflog_expire_unreachable, align 8, !tbaa !32
  br label %64

64:                                               ; preds = %58, %62, %60
  store i32 0, ptr %5, align 4
  store i32 1, ptr %16, align 4
  br label %83

65:                                               ; preds = %55
  %66 = load ptr, ptr %10, align 8, !tbaa !11
  %67 = load i64, ptr %12, align 8, !tbaa !32
  %68 = call ptr @find_cfg_ent(ptr noundef %66, i64 noundef %67)
  store ptr %68, ptr %15, align 8, !tbaa !79
  %69 = load ptr, ptr %15, align 8, !tbaa !79
  %70 = icmp ne ptr %69, null
  br i1 %70, label %72, label %71

71:                                               ; preds = %65
  store i32 -1, ptr %5, align 4
  store i32 1, ptr %16, align 4
  br label %83

72:                                               ; preds = %65
  %73 = load i32, ptr %14, align 4, !tbaa !4
  switch i32 %73, label %82 [
    i32 1, label %74
    i32 2, label %78
  ]

74:                                               ; preds = %72
  %75 = load i64, ptr %13, align 8, !tbaa !32
  %76 = load ptr, ptr %15, align 8, !tbaa !79
  %77 = getelementptr inbounds nuw %struct.reflog_expire_cfg, ptr %76, i32 0, i32 1
  store i64 %75, ptr %77, align 8, !tbaa !32
  br label %82

78:                                               ; preds = %72
  %79 = load i64, ptr %13, align 8, !tbaa !32
  %80 = load ptr, ptr %15, align 8, !tbaa !79
  %81 = getelementptr inbounds nuw %struct.reflog_expire_cfg, ptr %80, i32 0, i32 2
  store i64 %79, ptr %81, align 8, !tbaa !32
  br label %82

82:                                               ; preds = %72, %78, %74
  store i32 0, ptr %5, align 4
  store i32 1, ptr %16, align 4
  br label %83

83:                                               ; preds = %82, %71, %64, %48, %46, %35, %20
  call void @llvm.lifetime.end.p0(i64 8, ptr %15) #9
  call void @llvm.lifetime.end.p0(i64 4, ptr %14) #9
  call void @llvm.lifetime.end.p0(i64 8, ptr %13) #9
  call void @llvm.lifetime.end.p0(i64 8, ptr %12) #9
  call void @llvm.lifetime.end.p0(i64 8, ptr %11) #9
  call void @llvm.lifetime.end.p0(i64 8, ptr %10) #9
  %84 = load i32, ptr %5, align 4
  ret i32 %84
}