; Function Attrs: nounwind uwtable
define internal i32 @reflog_expire_config(ptr noundef %0, ptr noundef %1, ptr noundef %2, ptr noundef %3) #0 {
  %5 = alloca ptr, align 8
  %6 = alloca ptr, align 8
  %7 = alloca i64, align 8
  %8 = alloca i64, align 8
  call void @llvm.lifetime.start.p0(i64 8, ptr nonnull %5) #13
  call void @llvm.lifetime.start.p0(i64 8, ptr nonnull %6) #13
  call void @llvm.lifetime.start.p0(i64 8, ptr nonnull %7) #13
  call void @llvm.lifetime.start.p0(i64 8, ptr nonnull %8) #13
  %9 = call i32 @parse_config_key(ptr noundef %0, ptr noundef nonnull @.str.33, ptr noundef nonnull %5, ptr noundef nonnull %7, ptr noundef nonnull %6) #13
  %10 = icmp slt i32 %9, 0
  br i1 %10, label %11, label %13

11:                                               ; preds = %4
  %12 = call i32 @git_default_config(ptr noundef %0, ptr noundef %1, ptr noundef %2, ptr noundef %3) #13
  br label %54

13:                                               ; preds = %4
  %14 = load ptr, ptr %6, align 8, !tbaa !20
  %15 = call i32 @strcmp(ptr noundef nonnull dereferenceable(1) %14, ptr noundef nonnull dereferenceable(13) @.str.34) #14
  %.not = icmp eq i32 %15, 0
  br i1 %.not, label %16, label %18

16:                                               ; preds = %13
  %17 = call i32 @git_config_expiry_date(ptr noundef nonnull %8, ptr noundef %0, ptr noundef %1) #13
  %.not21 = icmp eq i32 %17, 0
  br i1 %.not21, label %24, label %54

18:                                               ; preds = %13
  %19 = call i32 @strcmp(ptr noundef nonnull dereferenceable(1) %14, ptr noundef nonnull dereferenceable(24) @.str.35) #14
  %.not22 = icmp eq i32 %19, 0
  br i1 %.not22, label %20, label %22

20:                                               ; preds = %18
  %21 = call i32 @git_config_expiry_date(ptr noundef nonnull %8, ptr noundef %0, ptr noundef %1) #13
  %.not23 = icmp eq i32 %21, 0
  br i1 %.not23, label %.thread, label %54

22:                                               ; preds = %18
  %23 = call i32 @git_default_config(ptr noundef %0, ptr noundef %1, ptr noundef %2, ptr noundef %3) #13
  br label %54

24:                                               ; preds = %16
  %25 = load ptr, ptr %5, align 8, !tbaa !20
  %.not24 = icmp eq ptr %25, null
  br i1 %.not24, label %27, label %31

.thread:                                          ; preds = %20
  %26 = load ptr, ptr %5, align 8, !tbaa !20
  %.not2433 = icmp eq ptr %26, null
  br i1 %.not2433, label %29, label %31

27:                                               ; preds = %24
  %28 = load i64, ptr %8, align 8, !tbaa !28
  store i64 %28, ptr @default_reflog_expire, align 8, !tbaa !28
  br label %54

29:                                               ; preds = %.thread
  %30 = load i64, ptr %8, align 8, !tbaa !28
  store i64 %30, ptr @default_reflog_expire_unreachable, align 8, !tbaa !28
  br label %54

31:                                               ; preds = %.thread, %24
  %32 = phi ptr [ %26, %.thread ], [ %25, %24 ]
  %33 = load i64, ptr %7, align 8, !tbaa !28
  %34 = load ptr, ptr @reflog_expire_cfg_tail, align 8, !tbaa !58
  %.not.i = icmp eq ptr %34, null
  br i1 %.not.i, label %35, label %.preheader

35:                                               ; preds = %31
  store ptr @reflog_expire_cfg, ptr @reflog_expire_cfg_tail, align 8, !tbaa !58
  br label %.preheader

.preheader:                                       ; preds = %35, %31
  br label %36

36:                                               ; preds = %.preheader, %37
  %.014.in.i = phi ptr [ %.014.i, %37 ], [ @reflog_expire_cfg, %.preheader ]
  %.014.i = load ptr, ptr %.014.in.i, align 8, !tbaa !52
  %.not15.i = icmp eq ptr %.014.i, null
  br i1 %.not15.i, label %40, label %37

37:                                               ; preds = %36
  %38 = getelementptr inbounds nuw i8, ptr %.014.i, i64 24
  %39 = call i32 @xstrncmpz(ptr noundef nonnull %38, ptr noundef nonnull %32, i64 noundef %33) #13
  %.not16.i = icmp eq i32 %39, 0
  br i1 %.not16.i, label %find_cfg_ent.exit.thread, label %36, !llvm.loop !60

40:                                               ; preds = %36
  %41 = icmp ugt i64 %33, -25
  br i1 %41, label %42, label %st_add.exit.i

42:                                               ; preds = %40
  call void (ptr, ...) @die(ptr noundef nonnull @.str.36, i64 noundef 24, i64 noundef %33) #15
  unreachable

st_add.exit.i:                                    ; preds = %40
  %43 = icmp eq i64 %33, -25
  br i1 %43, label %44, label %find_cfg_ent.exit

44:                                               ; preds = %st_add.exit.i
  call void (ptr, ...) @die(ptr noundef nonnull @.str.36, i64 noundef -1, i64 noundef 1) #15
  unreachable

find_cfg_ent.exit:                                ; preds = %st_add.exit.i
  %45 = add nuw i64 %33, 25
  %46 = call ptr @xcalloc(i64 noundef 1, i64 noundef %45) #13
  %47 = getelementptr inbounds nuw i8, ptr %46, i64 24
  call void @llvm.memcpy.p0.p0.i64(ptr nonnull align 8 %47, ptr nonnull align 1 %32, i64 %33, i1 false)
  %48 = load ptr, ptr @reflog_expire_cfg_tail, align 8, !tbaa !58
  store ptr %46, ptr %48, align 8, !tbaa !52
  store ptr %46, ptr @reflog_expire_cfg_tail, align 8, !tbaa !58
  %.not25 = icmp eq ptr %46, null
  br i1 %.not25, label %54, label %find_cfg_ent.exit.thread

find_cfg_ent.exit.thread:                         ; preds = %37, %find_cfg_ent.exit
  %.0.i30 = phi ptr [ %46, %find_cfg_ent.exit ], [ %.014.i, %37 ]
  %49 = load i64, ptr %8, align 8, !tbaa !28
  br i1 %.not, label %50, label %52

50:                                               ; preds = %find_cfg_ent.exit.thread
  %51 = getelementptr inbounds nuw i8, ptr %.0.i30, i64 8
  store i64 %49, ptr %51, align 8, !tbaa !28
  br label %54

52:                                               ; preds = %find_cfg_ent.exit.thread
  %53 = getelementptr inbounds nuw i8, ptr %.0.i30, i64 16
  store i64 %49, ptr %53, align 8, !tbaa !28
  br label %54

54:                                               ; preds = %50, %52, %find_cfg_ent.exit, %27, %29, %20, %16, %22, %11
  %.0 = phi i32 [ %12, %11 ], [ %23, %22 ], [ -1, %16 ], [ -1, %20 ], [ 0, %29 ], [ 0, %27 ], [ -1, %find_cfg_ent.exit ], [ 0, %52 ], [ 0, %50 ]
  call void @llvm.lifetime.end.p0(i64 8, ptr nonnull %8) #13
  call void @llvm.lifetime.end.p0(i64 8, ptr nonnull %7) #13
  call void @llvm.lifetime.end.p0(i64 8, ptr nonnull %6) #13
  call void @llvm.lifetime.end.p0(i64 8, ptr nonnull %5) #13
  ret i32 %.0
}